target datalayout = "e-m:e-p270:32:32-p271:32:32-p272:64:64-i64:64-i128:128-f80:128-n8:16:32:64-S128"
target triple = "x86_64-pc-linux-gnu"

%struct.mbedtls_sha256_context = type { [2 x i32], [8 x i32], [64 x i8], i32 }
%struct.mbedtls_entropy_context = type { i32, %struct.mbedtls_sha256_context, i32, [20 x %struct.mbedtls_entropy_source_state] }
%struct.mbedtls_entropy_source_state = type { ptr, ptr, i64, i64, i32 }

@_ZTISt13runtime_error = external constant ptr
@.str.7 = private unnamed_addr constant [31 x i8] c"Unable to generate random data\00", align 1

; Function Attrs: mustprogress nounwind uwtable
define linkonce_odr hidden noundef i64 @_ZN6duckdb8MinValueImEET_S1_S1_(i64 noundef %0, i64 noundef %1) #4 comdat {
  %3 = alloca i64, align 8
  %4 = alloca i64, align 8
  store i64 %0, ptr %3, align 8, !tbaa !8
  store i64 %1, ptr %4, align 8, !tbaa !8
  %5 = load i64, ptr %3, align 8, !tbaa !8
  %6 = load i64, ptr %4, align 8, !tbaa !8
  %7 = icmp ult i64 %5, %6
  br i1 %7, label %8, label %10

8:                                                ; preds = %2
  %9 = load i64, ptr %3, align 8, !tbaa !8
  br label %12

10:                                               ; preds = %2
  %11 = load i64, ptr %4, align 8, !tbaa !8
  br label %12

12:                                               ; preds = %10, %8
  %13 = phi i64 [ %9, %8 ], [ %11, %10 ]
  ret i64 %13
}

; Function Attrs: mustprogress uwtable
define hidden void @_ZN14duckdb_mbedtls14MbedTlsWrapper18AESGCMStateMBEDTLS18GenerateRandomDataEPhm(ptr noundef nonnull align 8 dereferenceable(24) %0, ptr noundef %1, i64 noundef %2) unnamed_addr #0 align 2 personality ptr @__gxx_personality_v0 {
  %4 = alloca ptr, align 8
  %5 = alloca ptr, align 8
  %6 = alloca i64, align 8
  %7 = alloca [32 x i8], align 16
  %8 = alloca %struct.mbedtls_entropy_context, align 8
  %9 = alloca ptr, align 8
  %10 = alloca i32, align 4
  %11 = alloca i64, align 8
  store ptr %0, ptr %4, align 8, !tbaa !38
  store ptr %1, ptr %5, align 8, !tbaa !3
  store i64 %2, ptr %6, align 8, !tbaa !8
  call void @llvm.lifetime.start.p0(i64 32, ptr %7) #13
  call void @llvm.lifetime.start.p0(i64 920, ptr %8) #13
  call void @mbedtls_entropy_init(ptr noundef %8)
  br label %12

12:                                               ; preds = %26, %3
  %13 = load i64, ptr %6, align 8, !tbaa !8
  %14 = icmp ne i64 %13, 0
  br i1 %14, label %15, label %38

15:                                               ; preds = %12
  %16 = getelementptr inbounds [32 x i8], ptr %7, i64 0, i64 0
  %17 = call i32 @mbedtls_entropy_func(ptr noundef %8, ptr noundef %16, i64 noundef 32)
  %18 = icmp ne i32 %17, 0
  br i1 %18, label %19, label %26

19:                                               ; preds = %15
  %20 = call ptr @__cxa_allocate_exception(i64 16) #13
  invoke void @_ZNSt13runtime_errorC1EPKc(ptr noundef nonnull align 8 dereferenceable(16) %20, ptr noundef @.str.7)
          to label %21 unwind label %22

21:                                               ; preds = %19
  call void @__cxa_throw(ptr %20, ptr @_ZTISt13runtime_error, ptr @_ZNSt13runtime_errorD1Ev) #14
  unreachable

22:                                               ; preds = %19
  %23 = landingpad { ptr, i32 }
          cleanup
  %24 = extractvalue { ptr, i32 } %23, 0
  store ptr %24, ptr %9, align 8
  %25 = extractvalue { ptr, i32 } %23, 1
  store i32 %25, ptr %10, align 4
  call void @__cxa_free_exception(ptr %20) #13
  call void @llvm.lifetime.end.p0(i64 920, ptr %8) #13
  call void @llvm.lifetime.end.p0(i64 32, ptr %7) #13
  br label %39

26:                                               ; preds = %15
  call void @llvm.lifetime.start.p0(i64 8, ptr %11) #13
  %27 = load i64, ptr %6, align 8, !tbaa !8
  %28 = call noundef i64 @_ZN6duckdb8MinValueImEET_S1_S1_(i64 noundef %27, i64 noundef 32)
  store i64 %28, ptr %11, align 8, !tbaa !8
  %29 = load ptr, ptr %5, align 8, !tbaa !3
  %30 = getelementptr inbounds [32 x i8], ptr %7, i64 0, i64 0
  %31 = load i64, ptr %11, align 8, !tbaa !8
  call void @llvm.memcpy.p0.p0.i64(ptr align 1 %29, ptr align 16 %30, i64 %31, i1 false)
  %32 = load i64, ptr %11, align 8, !tbaa !8
  %33 = load ptr, ptr %5, align 8, !tbaa !3
  %34 = getelementptr inbounds nuw i8, ptr %33, i64 %32
  store ptr %34, ptr %5, align 8, !tbaa !3
  %35 = load i64, ptr %11, align 8, !tbaa !8
  %36 = load i64, ptr %6, align 8, !tbaa !8
  %37 = sub i64 %36, %35
  store i64 %37, ptr %6, align 8, !tbaa !8
  call void @llvm.lifetime.end.p0(i64 8, ptr %11) #13
  br label %12, !llvm.loop !48

38:                                               ; preds = %12
  call void @llvm.lifetime.end.p0(i64 920, ptr %8) #13
  call void @llvm.lifetime.end.p0(i64 32, ptr %7) #13
  ret void

39:                                               ; preds = %22
  %40 = load ptr, ptr %9, align 8
  %41 = load i32, ptr %10, align 4
  %42 = insertvalue { ptr, i32 } poison, ptr %40, 0
  %43 = insertvalue { ptr, i32 } %42, i32 %41, 1
  resume { ptr, i32 } %43
}