; Function Attrs: mustprogress uwtable
define hidden void @_ZN14duckdb_mbedtls14MbedTlsWrapper18AESGCMStateMBEDTLS18GenerateRandomDataEPhm(ptr nonnull readnone align 8 captures(none) %0, ptr noundef writeonly captures(none) %1, i64 noundef %2) unnamed_addr #0 align 2 personality ptr @__gxx_personality_v0 {
  %4 = alloca [32 x i8], align 16
  %5 = alloca %struct.mbedtls_entropy_context, align 8
  call void @llvm.lifetime.start.p0(i64 32, ptr nonnull %4) #19
  call void @llvm.lifetime.start.p0(i64 920, ptr nonnull %5) #19
  call void @mbedtls_entropy_init(ptr noundef nonnull %5)
  %.not11 = icmp eq i64 %2, 0
  br i1 %.not11, label %._crit_edge, label %.lr.ph

.lr.ph:                                           ; preds = %3, %12
  %.013 = phi ptr [ %14, %12 ], [ %1, %3 ]
  %.0912 = phi i64 [ %15, %12 ], [ %2, %3 ]
  %6 = call i32 @mbedtls_entropy_func(ptr noundef nonnull %5, ptr noundef nonnull %4, i64 noundef 32)
  %.not10 = icmp eq i32 %6, 0
  br i1 %.not10, label %12, label %7

7:                                                ; preds = %.lr.ph
  %8 = call ptr @__cxa_allocate_exception(i64 16) #19
  invoke void @_ZNSt13runtime_errorC1EPKc(ptr noundef nonnull align 8 dereferenceable(16) %8, ptr noundef nonnull @.str.7)
          to label %9 unwind label %10

9:                                                ; preds = %7
  call void @__cxa_throw(ptr nonnull %8, ptr nonnull @_ZTISt13runtime_error, ptr nonnull @_ZNSt13runtime_errorD1Ev) #20
  unreachable

10:                                               ; preds = %7
  %11 = landingpad { ptr, i32 }
          cleanup
  call void @__cxa_free_exception(ptr nonnull %8) #19
  call void @llvm.lifetime.end.p0(i64 920, ptr nonnull %5) #19
  call void @llvm.lifetime.end.p0(i64 32, ptr nonnull %4) #19
  resume { ptr, i32 } %11

12:                                               ; preds = %.lr.ph
  %13 = call noundef i64 @llvm.umin.i64(i64 %.0912, i64 32)
  call void @llvm.memcpy.p0.p0.i64(ptr noundef nonnull align 1 dereferenceable(1) %.013, ptr noundef nonnull align 16 dereferenceable(1) %4, i64 %13, i1 false)
  %14 = getelementptr inbounds nuw i8, ptr %.013, i64 %13
  %15 = sub i64 %.0912, %13
  %.not = icmp eq i64 %15, 0
  br i1 %.not, label %._crit_edge, label %.lr.ph, !llvm.loop !31

._crit_edge:                                      ; preds = %12, %3
  call void @llvm.lifetime.end.p0(i64 920, ptr nonnull %5) #19
  call void @llvm.lifetime.end.p0(i64 32, ptr nonnull %4) #19
  ret void
}